; Function Attrs: nounwind uwtable
define void @php_store_class_name(ptr nocapture noundef readonly %0, ptr noundef %1) local_unnamed_addr #2 {
  %3 = alloca %struct._zval_struct, align 8
  store ptr %1, ptr %3, align 8
  %4 = getelementptr inbounds i8, ptr %1, i64 4
  %5 = load i32, ptr %4, align 4
  %6 = and i32 %5, 64
  %.not = icmp eq i32 %6, 0
  br i1 %.not, label %7, label %10

7:                                                ; preds = %2
  %8 = load i32, ptr %1, align 4
  %9 = add i32 %8, 1
  store i32 %9, ptr %1, align 4
  br label %10

10:                                               ; preds = %2, %7
  %.sink = phi i32 [ 262, %7 ], [ 6, %2 ]
  %11 = getelementptr inbounds i8, ptr %3, i64 8
  store i32 %.sink, ptr %11, align 8
  %12 = load ptr, ptr %0, align 8
  %13 = getelementptr inbounds i8, ptr %12, i64 24
  %14 = load ptr, ptr %13, align 8
  %15 = getelementptr inbounds i8, ptr %14, i64 104
  %16 = load ptr, ptr %15, align 8
  %17 = tail call ptr %16(ptr noundef %12) #5
  %18 = call ptr @zend_hash_str_update(ptr noundef %17, ptr noundef nonnull @.str, i64 noundef 27, ptr noundef nonnull %3) #5
  ret void
}